; Function Attrs: mustprogress norecurse uwtable
define internal fastcc noundef zeroext i1 @_ZL16test_small_primeP8_IO_FILEP10bignum_ctx(ptr noundef captures(none) %0) unnamed_addr #0 personality ptr @__gxx_personality_v0 {
  %2 = alloca %"class.std::unique_ptr.10", align 8
  call void @llvm.lifetime.start.p0(i64 8, ptr nonnull %2) #19
  %3 = tail call ptr @BN_new()
  store ptr %3, ptr %2, align 8, !tbaa !19
  %.not4 = icmp eq ptr %3, null
  br i1 %.not4, label %_ZNSt10unique_ptrI9bignum_st14OpenSSLDeleterIS0_XadL_Z7BN_freeEEEED2Ev.exit, label %4

4:                                                ; preds = %1
  %5 = invoke i32 @BN_generate_prime_ex(ptr noundef nonnull %3, i32 noundef 10, i32 noundef 0, ptr noundef null, ptr noundef null, ptr noundef null)
          to label %6 unwind label %7

6:                                                ; preds = %4
  %.not = icmp eq i32 %5, 0
  br i1 %.not, label %16, label %9

7:                                                ; preds = %12, %9, %4
  %8 = landingpad { ptr, i32 }
          cleanup
  call void @_ZNSt10unique_ptrI9bignum_st14OpenSSLDeleterIS0_XadL_Z7BN_freeEEEED2Ev(ptr noundef nonnull align 8 dereferenceable(8) %2) #19
  call void @llvm.lifetime.end.p0(i64 8, ptr nonnull %2) #19
  resume { ptr, i32 } %8

9:                                                ; preds = %6
  %10 = invoke i32 @BN_num_bits(ptr noundef nonnull %3)
          to label %11 unwind label %7

11:                                               ; preds = %9
  %.not3 = icmp eq i32 %10, 10
  br i1 %.not3, label %16, label %12

12:                                               ; preds = %11
  %13 = invoke i32 @BN_num_bits(ptr noundef nonnull %3)
          to label %14 unwind label %7

14:                                               ; preds = %12
  %15 = tail call i32 (ptr, ptr, ...) @fprintf(ptr noundef %0, ptr noundef nonnull @.str.78, i32 noundef 10, i32 noundef %13) #19
  br label %16

16:                                               ; preds = %14, %6, %11
  %.0.ph = phi i1 [ true, %11 ], [ false, %6 ], [ false, %14 ]
  invoke void @BN_free(ptr noundef nonnull %3)
          to label %_ZNSt10unique_ptrI9bignum_st14OpenSSLDeleterIS0_XadL_Z7BN_freeEEEED2Ev.exit unwind label %17

17:                                               ; preds = %16
  %18 = landingpad { ptr, i32 }
          catch ptr null
  %19 = extractvalue { ptr, i32 } %18, 0
  tail call void @__clang_call_terminate(ptr %19) #21
  unreachable

_ZNSt10unique_ptrI9bignum_st14OpenSSLDeleterIS0_XadL_Z7BN_freeEEEED2Ev.exit: ; preds = %1, %16
  %.03 = phi i1 [ %.0.ph, %16 ], [ false, %1 ]
  call void @llvm.lifetime.end.p0(i64 8, ptr nonnull %2) #19
  ret i1 %.03
}